target datalayout = "e-m:e-p270:32:32-p271:32:32-p272:64:64-i64:64-i128:128-f80:128-n8:16:32:64-S128"
target triple = "x86_64-pc-linux-gnu"

%"class.icu_77::Calendar" = type <{ %"class.icu_77::UObject", [24 x i32], [24 x i8], i8, [7 x i8], double, ptr, i8, i16, i8, i32, i32, i32, i8, i8, i16, [4 x i8], ptr, ptr }>
%"class.icu_77::UObject" = type { ptr }

; Function Attrs: inlinehint mustprogress nounwind uwtable
define linkonce_odr noundef i32 @_ZNK6icu_778Calendar11internalGetE19UCalendarDateFieldsi(ptr noundef nonnull align 8 dereferenceable(192) %0, i32 noundef %1, i32 noundef %2) #4 comdat align 2 {
  %4 = alloca ptr, align 8
  %5 = alloca i32, align 4
  %6 = alloca i32, align 4
  store ptr %0, ptr %4, align 8, !tbaa !32
  store i32 %1, ptr %5, align 4, !tbaa !45
  store i32 %2, ptr %6, align 4, !tbaa !31
  %7 = load ptr, ptr %4, align 8
  %8 = getelementptr inbounds nuw %"class.icu_77::Calendar", ptr %7, i32 0, i32 2
  %9 = load i32, ptr %5, align 4, !tbaa !45
  %10 = zext i32 %9 to i64
  %11 = getelementptr inbounds nuw [24 x i8], ptr %8, i64 0, i64 %10
  %12 = load i8, ptr %11, align 1, !tbaa !37
  %13 = sext i8 %12 to i32
  %14 = icmp sgt i32 %13, 0
  br i1 %14, label %15, label %21

15:                                               ; preds = %3
  %16 = getelementptr inbounds nuw %"class.icu_77::Calendar", ptr %7, i32 0, i32 1
  %17 = load i32, ptr %5, align 4, !tbaa !45
  %18 = zext i32 %17 to i64
  %19 = getelementptr inbounds nuw [24 x i32], ptr %16, i64 0, i64 %18
  %20 = load i32, ptr %19, align 4, !tbaa !31
  br label %23

21:                                               ; preds = %3
  %22 = load i32, ptr %6, align 4, !tbaa !31
  br label %23

23:                                               ; preds = %21, %15
  %24 = phi i32 [ %20, %15 ], [ %22, %21 ]
  ret i32 %24
}

; Function Attrs: inlinehint mustprogress nounwind uwtable
define internal noundef signext i8 @_ZL9U_FAILURE10UErrorCode(i32 noundef %0) #4 {
  %2 = alloca i32, align 4
  store i32 %0, ptr %2, align 4, !tbaa !35
  %3 = load i32, ptr %2, align 4, !tbaa !35
  %4 = icmp sgt i32 %3, 0
  %5 = zext i1 %4 to i8
  ret i8 %5
}

; Function Attrs: mustprogress uwtable
define noundef i32 @_ZN6icu_7717GregorianCalendar35handleGetExtendedYearFromWeekFieldsEiiR10UErrorCode(ptr noundef nonnull align 8 dereferenceable(222) %0, i32 noundef %1, i32 noundef %2, ptr noundef nonnull align 4 dereferenceable(4) %3) unnamed_addr #1 align 2 {
  %5 = alloca i32, align 4
  %6 = alloca ptr, align 8
  %7 = alloca i32, align 4
  %8 = alloca i32, align 4
  %9 = alloca ptr, align 8
  %10 = alloca i32, align 4
  store ptr %0, ptr %6, align 8, !tbaa !3
  store i32 %1, ptr %7, align 4, !tbaa !31
  store i32 %2, ptr %8, align 4, !tbaa !31
  store ptr %3, ptr %9, align 8, !tbaa !8
  %11 = load ptr, ptr %6, align 8
  %12 = load ptr, ptr %9, align 8, !tbaa !8
  %13 = load i32, ptr %12, align 4, !tbaa !35
  %14 = call noundef signext i8 @_ZL9U_FAILURE10UErrorCode(i32 noundef %13)
  %15 = icmp ne i8 %14, 0
  br i1 %15, label %16, label %17

16:                                               ; preds = %4
  store i32 0, ptr %5, align 4
  br label %29

17:                                               ; preds = %4
  call void @llvm.lifetime.start.p0(i64 4, ptr %10) #10
  %18 = call noundef i32 @_ZNK6icu_778Calendar11internalGetE19UCalendarDateFieldsi(ptr noundef nonnull align 8 dereferenceable(192) %11, i32 noundef 0, i32 noundef 1)
  store i32 %18, ptr %10, align 4, !tbaa !31
  %19 = load i32, ptr %10, align 4, !tbaa !31
  %20 = icmp eq i32 %19, 0
  br i1 %20, label %21, label %24

21:                                               ; preds = %17
  %22 = load i32, ptr %7, align 4, !tbaa !31
  %23 = sub nsw i32 1, %22
  store i32 %23, ptr %7, align 4, !tbaa !31
  br label %24

24:                                               ; preds = %21, %17
  %25 = load i32, ptr %7, align 4, !tbaa !31
  %26 = load i32, ptr %8, align 4, !tbaa !31
  %27 = load ptr, ptr %9, align 8, !tbaa !8
  %28 = call noundef i32 @_ZN6icu_778Calendar35handleGetExtendedYearFromWeekFieldsEiiR10UErrorCode(ptr noundef nonnull align 8 dereferenceable(192) %11, i32 noundef %25, i32 noundef %26, ptr noundef nonnull align 4 dereferenceable(4) %27)
  store i32 %28, ptr %5, align 4
  call void @llvm.lifetime.end.p0(i64 4, ptr %10) #10
  br label %29

29:                                               ; preds = %24, %16
  %30 = load i32, ptr %5, align 4
  ret i32 %30
}