; Function Attrs: mustprogress uwtable
define noundef i32 @_ZN6icu_7717GregorianCalendar35handleGetExtendedYearFromWeekFieldsEiiR10UErrorCode(ptr noundef nonnull align 8 dereferenceable(222) %0, i32 noundef %1, i32 noundef %2, ptr noundef nonnull align 4 dereferenceable(4) %3) unnamed_addr #1 align 2 {
  %5 = load i32, ptr %3, align 4, !tbaa !25
  %6 = icmp slt i32 %5, 1
  br i1 %6, label %_ZNK6icu_778Calendar11internalGetE19UCalendarDateFieldsi.exit.thread, label %17

_ZNK6icu_778Calendar11internalGetE19UCalendarDateFieldsi.exit.thread: ; preds = %4
  %7 = getelementptr inbounds nuw i8, ptr %0, i64 104
  %8 = load i8, ptr %7, align 8, !tbaa !33
  %9 = icmp sgt i8 %8, 0
  %10 = getelementptr inbounds nuw i8, ptr %0, i64 8
  %11 = load i32, ptr %10, align 8
  %.fr = freeze i32 %11
  %12 = icmp eq i32 %.fr, 0
  %13 = sub nsw i32 1, %1
  %14 = and i1 %9, %12
  %15 = select i1 %14, i32 %13, i32 %1
  %16 = tail call noundef i32 @_ZN6icu_778Calendar35handleGetExtendedYearFromWeekFieldsEiiR10UErrorCode(ptr noundef nonnull align 8 dereferenceable(192) %0, i32 noundef %15, i32 noundef %2, ptr noundef nonnull align 4 dereferenceable(4) %3)
  br label %17

17:                                               ; preds = %4, %_ZNK6icu_778Calendar11internalGetE19UCalendarDateFieldsi.exit.thread
  %.0 = phi i32 [ %16, %_ZNK6icu_778Calendar11internalGetE19UCalendarDateFieldsi.exit.thread ], [ 0, %4 ]
  ret i32 %.0
}